target datalayout = "e-m:e-p270:32:32-p271:32:32-p272:64:64-i64:64-i128:128-f80:128-n8:16:32:64-S128"
target triple = "x86_64-unknown-linux-gnu"

%struct.TPCI200State = type { %struct.PCIDevice, %struct.IPackBus, %struct.MemoryRegion, %struct.MemoryRegion, %struct.MemoryRegion, %struct.MemoryRegion, %struct.MemoryRegion, %struct.MemoryRegion, [3 x i8], [4 x i8], i16, i8 }
%struct.PCIDevice = type { %struct.DeviceState, i8, i8, ptr, ptr, ptr, ptr, ptr, i32, %struct.PCIReqIDCache, [64 x i8], [7 x %struct.PCIIORegion], %struct.AddressSpace, %struct.MemoryRegion, %struct.MemoryRegion, ptr, ptr, [3 x ptr], i8, i8, i32, i8, i32, ptr, ptr, ptr, ptr, ptr, ptr, %struct.MemoryRegion, %struct.MemoryRegion, %struct.MemoryRegion, ptr, i8, i32, i8, %struct.PCIExpressDevice, ptr, ptr, i32, i8, %struct.MemoryRegion, i32, ptr, ptr, ptr, ptr, ptr, i32 }
%struct.DeviceState = type { %struct.Object, ptr, ptr, i8, i8, i64, ptr, i32, i8, ptr, %struct.NamedGPIOListHead, %struct.NamedClockListHead, %struct.BusStateHead, i32, i32, i32, %struct.ResettableState, ptr, %struct.MemReentrancyGuard }
%struct.Object = type { ptr, ptr, ptr, i32, ptr }
%struct.NamedGPIOListHead = type { ptr }
%struct.NamedClockListHead = type { ptr }
%struct.BusStateHead = type { ptr }
%struct.ResettableState = type { i32, i8, i8 }
%struct.MemReentrancyGuard = type { i8 }
%struct.PCIReqIDCache = type { ptr, i32 }
%struct.PCIIORegion = type { i64, i64, i8, ptr, ptr }
%struct.AddressSpace = type { %struct.rcu_head, ptr, ptr, ptr, i32, i32, ptr, %union.anon, %union.anon.0 }
%struct.rcu_head = type { ptr, ptr }
%union.anon = type { %struct.QTailQLink }
%struct.QTailQLink = type { ptr, ptr }
%union.anon.0 = type { %struct.QTailQLink }
%struct.PCIExpressDevice = type { i8, i8, i8, i16, %struct.PCIEAERLog, i16, i16, i16, %struct.PCIESriovPF, %struct.PCIESriovVF }
%struct.PCIEAERLog = type { i16, i16, ptr }
%struct.PCIESriovPF = type { i16, [7 x i8], ptr, ptr }
%struct.PCIESriovVF = type { ptr, i16 }
%struct.IPackBus = type { %struct.BusState, i8, i8, ptr }
%struct.BusState = type { %struct.Object, ptr, ptr, ptr, i32, i8, i8, i32, %union.BusChildHead, %struct.BusStateEntry, %struct.ResettableState }
%union.BusChildHead = type { %struct.QTailQLink }
%struct.BusStateEntry = type { ptr, ptr }
%struct.MemoryRegion = type { %struct.Object, i8, i8, i8, i8, i8, i8, i8, i8, i8, i8, ptr, ptr, ptr, ptr, ptr, ptr, i32, i128, i64, ptr, i64, i8, i8, i8, i8, i8, ptr, i64, i32, %union.anon.1, %union.anon.2, %union.anon.3, ptr, i32, ptr, ptr, i8 }
%union.anon.1 = type { %struct.QTailQLink }
%union.anon.2 = type { %struct.QTailQLink }
%union.anon.3 = type { %struct.QTailQLink }
%struct.IPackDevice = type { %struct.DeviceState, i32, ptr }

; Function Attrs: nounwind sspstrong uwtable
define internal void @qemu_irq_lower(ptr noundef %irq) #0 {
entry:
  %irq.addr = alloca ptr, align 8
  store ptr %irq, ptr %irq.addr, align 8
  %0 = load ptr, ptr %irq.addr, align 8
  call void @qemu_set_irq(ptr noundef %0, i32 noundef 0)
  ret void
}

; Function Attrs: nounwind sspstrong uwtable
define internal i64 @adjust_value(i1 noundef zeroext %big_endian, ptr noundef %val, i32 noundef %size) #0 {
entry:
  %big_endian.addr = alloca i8, align 1
  %val.addr = alloca ptr, align 8
  %size.addr = alloca i32, align 4
  %frombool = zext i1 %big_endian to i8
  store i8 %frombool, ptr %big_endian.addr, align 1
  store ptr %val, ptr %val.addr, align 8
  store i32 %size, ptr %size.addr, align 4
  %0 = load i8, ptr %big_endian.addr, align 1
  %tobool = trunc i8 %0 to i1
  br i1 %tobool, label %land.lhs.true, label %if.end

land.lhs.true:                                    ; preds = %entry
  %1 = load i32, ptr %size.addr, align 4
  %cmp = icmp eq i32 %1, 2
  br i1 %cmp, label %if.then, label %if.end

if.then:                                          ; preds = %land.lhs.true
  %2 = load ptr, ptr %val.addr, align 8
  %3 = load i64, ptr %2, align 8
  %conv = trunc i64 %3 to i16
  %4 = call i16 @llvm.bswap.i16(i16 %conv)
  %conv1 = zext i16 %4 to i64
  %5 = load ptr, ptr %val.addr, align 8
  store i64 %conv1, ptr %5, align 8
  br label %if.end

if.end:                                           ; preds = %if.then, %land.lhs.true, %entry
  %6 = load ptr, ptr %val.addr, align 8
  %7 = load i64, ptr %6, align 8
  ret i64 %7
}

; Function Attrs: nounwind sspstrong uwtable
define internal void @tpci200_write_las0(ptr noundef %opaque, i64 noundef %addr, i64 noundef %val, i32 noundef %size) #0 {
entry:
  %opaque.addr = alloca ptr, align 8
  %addr.addr = alloca i64, align 8
  %val.addr = alloca i64, align 8
  %size.addr = alloca i32, align 4
  %s = alloca ptr, align 8
  %ip_n = alloca i32, align 4
  %i = alloca i32, align 4
  %ip = alloca ptr, align 8
  store ptr %opaque, ptr %opaque.addr, align 8
  store i64 %addr, ptr %addr.addr, align 8
  store i64 %val, ptr %val.addr, align 8
  store i32 %size, ptr %size.addr, align 4
  %0 = load ptr, ptr %opaque.addr, align 8
  store ptr %0, ptr %s, align 8
  %1 = load ptr, ptr %s, align 8
  %big_endian = getelementptr inbounds %struct.TPCI200State, ptr %1, i32 0, i32 8
  %arrayidx = getelementptr [3 x i8], ptr %big_endian, i64 0, i64 0
  %2 = load i8, ptr %arrayidx, align 16
  %tobool = trunc i8 %2 to i1
  %3 = load i32, ptr %size.addr, align 4
  %call = call i64 @adjust_value(i1 noundef zeroext %tobool, ptr noundef %val.addr, i32 noundef %3)
  %4 = load i64, ptr %addr.addr, align 8
  switch i64 %4, label %sw.default [
    i64 0, label %sw.bb
    i64 2, label %sw.bb1
    i64 4, label %sw.bb1
    i64 6, label %sw.bb1
    i64 8, label %sw.bb1
    i64 10, label %sw.bb6
    i64 12, label %sw.bb9
  ]

sw.bb:                                            ; preds = %entry
  br label %do.body

do.body:                                          ; preds = %sw.bb
  br label %do.end

do.end:                                           ; preds = %do.body
  br label %sw.epilog

sw.bb1:                                           ; preds = %entry, %entry, %entry, %entry
  %5 = load i64, ptr %addr.addr, align 8
  %div = udiv i64 %5, 2
  %sub = sub i64 %div, 1
  %conv = trunc i64 %sub to i32
  store i32 %conv, ptr %ip_n, align 4
  %6 = load i64, ptr %val.addr, align 8
  %conv2 = trunc i64 %6 to i8
  %7 = load ptr, ptr %s, align 8
  %ctrl = getelementptr inbounds %struct.TPCI200State, ptr %7, i32 0, i32 9
  %8 = load i32, ptr %ip_n, align 4
  %idxprom = zext i32 %8 to i64
  %arrayidx3 = getelementptr [4 x i8], ptr %ctrl, i64 0, i64 %idxprom
  store i8 %conv2, ptr %arrayidx3, align 1
  br label %do.body4

do.body4:                                         ; preds = %sw.bb1
  br label %do.end5

do.end5:                                          ; preds = %do.body4
  br label %sw.epilog

sw.bb6:                                           ; preds = %entry
  br label %do.body7

do.body7:                                         ; preds = %sw.bb6
  br label %do.end8

do.end8:                                          ; preds = %do.body7
  br label %sw.epilog

sw.bb9:                                           ; preds = %entry
  store i32 0, ptr %i, align 4
  br label %for.cond

for.cond:                                         ; preds = %for.inc, %sw.bb9
  %9 = load i32, ptr %i, align 4
  %cmp = icmp ult i32 %9, 4
  br i1 %cmp, label %for.body, label %for.end

for.body:                                         ; preds = %for.cond
  %10 = load ptr, ptr %s, align 8
  %bus = getelementptr inbounds %struct.TPCI200State, ptr %10, i32 0, i32 1
  %11 = load i32, ptr %i, align 4
  %call11 = call ptr @ipack_device_find(ptr noundef %bus, i32 noundef %11)
  store ptr %call11, ptr %ip, align 8
  %12 = load ptr, ptr %ip, align 8
  %cmp12 = icmp ne ptr %12, null
  br i1 %cmp12, label %if.then, label %if.end31

if.then:                                          ; preds = %for.body
  %13 = load i64, ptr %val.addr, align 8
  %14 = load i32, ptr %i, align 4
  %mul = mul i32 %14, 2
  %add = add i32 %mul, 0
  %sh_prom = zext i32 %add to i64
  %shl = shl i64 1, %sh_prom
  %and = and i64 %13, %shl
  %tobool14 = icmp ne i64 %and, 0
  br i1 %tobool14, label %if.then15, label %if.end

if.then15:                                        ; preds = %if.then
  br label %do.body16

do.body16:                                        ; preds = %if.then15
  br label %do.end17

do.end17:                                         ; preds = %do.body16
  %15 = load ptr, ptr %ip, align 8
  %irq = getelementptr inbounds %struct.IPackDevice, ptr %15, i32 0, i32 2
  %16 = load ptr, ptr %irq, align 8
  %arrayidx18 = getelementptr ptr, ptr %16, i64 0
  %17 = load ptr, ptr %arrayidx18, align 8
  call void @qemu_irq_lower(ptr noundef %17)
  br label %if.end

if.end:                                           ; preds = %do.end17, %if.then
  %18 = load i64, ptr %val.addr, align 8
  %19 = load i32, ptr %i, align 4
  %mul19 = mul i32 %19, 2
  %add20 = add i32 %mul19, 1
  %sh_prom21 = zext i32 %add20 to i64
  %shl22 = shl i64 1, %sh_prom21
  %and23 = and i64 %18, %shl22
  %tobool24 = icmp ne i64 %and23, 0
  br i1 %tobool24, label %if.then25, label %if.end30

if.then25:                                        ; preds = %if.end
  br label %do.body26

do.body26:                                        ; preds = %if.then25
  br label %do.end27

do.end27:                                         ; preds = %do.body26
  %20 = load ptr, ptr %ip, align 8
  %irq28 = getelementptr inbounds %struct.IPackDevice, ptr %20, i32 0, i32 2
  %21 = load ptr, ptr %irq28, align 8
  %arrayidx29 = getelementptr ptr, ptr %21, i64 1
  %22 = load ptr, ptr %arrayidx29, align 8
  call void @qemu_irq_lower(ptr noundef %22)
  br label %if.end30

if.end30:                                         ; preds = %do.end27, %if.end
  br label %if.end31

if.end31:                                         ; preds = %if.end30, %for.body
  %23 = load i64, ptr %val.addr, align 8
  %24 = load i32, ptr %i, align 4
  %add32 = add i32 %24, 12
  %sh_prom33 = zext i32 %add32 to i64
  %shl34 = shl i64 1, %sh_prom33
  %and35 = and i64 %23, %shl34
  %tobool36 = icmp ne i64 %and35, 0
  br i1 %tobool36, label %if.then37, label %if.end46

if.then37:                                        ; preds = %if.end31
  br label %do.body38

do.body38:                                        ; preds = %if.then37
  br label %do.end39

do.end39:                                         ; preds = %do.body38
  %25 = load i32, ptr %i, align 4
  %add40 = add i32 %25, 12
  %sh_prom41 = zext i32 %add40 to i64
  %shl42 = shl i64 1, %sh_prom41
  %not = xor i64 %shl42, -1
  %26 = load ptr, ptr %s, align 8
  %status = getelementptr inbounds %struct.TPCI200State, ptr %26, i32 0, i32 10
  %27 = load i16, ptr %status, align 8
  %conv43 = zext i16 %27 to i64
  %and44 = and i64 %conv43, %not
  %conv45 = trunc i64 %and44 to i16
  store i16 %conv45, ptr %status, align 8
  br label %if.end46

if.end46:                                         ; preds = %do.end39, %if.end31
  br label %for.inc

for.inc:                                          ; preds = %if.end46
  %28 = load i32, ptr %i, align 4
  %inc = add i32 %28, 1
  store i32 %inc, ptr %i, align 4
  br label %for.cond, !llvm.loop !8

for.end:                                          ; preds = %for.cond
  %29 = load i64, ptr %val.addr, align 8
  %and47 = and i64 %29, 3840
  %tobool48 = icmp ne i64 %and47, 0
  br i1 %tobool48, label %if.then49, label %if.end52

if.then49:                                        ; preds = %for.end
  br label %do.body50

do.body50:                                        ; preds = %if.then49
  br label %do.end51

do.end51:                                         ; preds = %do.body50
  br label %if.end52

if.end52:                                         ; preds = %do.end51, %for.end
  br label %sw.epilog

sw.default:                                       ; preds = %entry
  br label %do.body53

do.body53:                                        ; preds = %sw.default
  br label %do.end54

do.end54:                                         ; preds = %do.body53
  br label %sw.epilog

sw.epilog:                                        ; preds = %do.end54, %if.end52, %do.end8, %do.end5, %do.end
  ret void
}