; Function Attrs: nounwind sspstrong uwtable
define internal void @tpci200_write_las0(ptr noundef %opaque, i64 noundef %addr, i64 noundef %val, i32 noundef %size) #0 {
entry:
  %big_endian = getelementptr inbounds nuw i8, ptr %opaque, i64 4384
  %0 = load i8, ptr %big_endian, align 16
  %tobool = trunc i8 %0 to i1
  %cmp.i = icmp eq i32 %size, 2
  %or.cond.i = and i1 %cmp.i, %tobool
  %conv.i = trunc i64 %val to i16
  %1 = tail call i16 @llvm.bswap.i16(i16 %conv.i)
  %conv1.i = zext i16 %1 to i64
  %val.addr.0 = select i1 %or.cond.i, i64 %conv1.i, i64 %val
  switch i64 %addr, label %sw.epilog [
    i64 12, label %for.cond.preheader
    i64 2, label %sw.bb1
    i64 4, label %sw.bb1
    i64 6, label %sw.bb1
    i64 8, label %sw.bb1
  ]

for.cond.preheader:                               ; preds = %entry
  %bus = getelementptr inbounds nuw i8, ptr %opaque, i64 2608
  %status = getelementptr inbounds nuw i8, ptr %opaque, i64 4392
  br label %for.body

sw.bb1:                                           ; preds = %entry, %entry, %entry, %entry
  %div13 = lshr i64 %addr, 1
  %conv = add nuw nsw i64 %div13, 4294967295
  %conv2 = trunc i64 %val.addr.0 to i8
  %ctrl = getelementptr inbounds nuw i8, ptr %opaque, i64 4387
  %idxprom = and i64 %conv, 4294967295
  %arrayidx3 = getelementptr [4 x i8], ptr %ctrl, i64 0, i64 %idxprom
  store i8 %conv2, ptr %arrayidx3, align 1
  br label %sw.epilog

for.body:                                         ; preds = %for.cond.preheader, %for.inc
  %indvars.iv = phi i64 [ 0, %for.cond.preheader ], [ %indvars.iv.next, %for.inc ]
  %2 = trunc nuw nsw i64 %indvars.iv to i32
  %call11 = tail call ptr @ipack_device_find(ptr noundef nonnull %bus, i32 noundef %2) #6
  %cmp12.not = icmp eq ptr %call11, null
  br i1 %cmp12.not, label %if.end31, label %if.then

if.then:                                          ; preds = %for.body
  %3 = shl nuw nsw i64 %indvars.iv, 1
  %shl = shl nuw nsw i64 1, %3
  %and = and i64 %shl, %val.addr.0
  %tobool14.not = icmp eq i64 %and, 0
  br i1 %tobool14.not, label %if.end, label %do.end17

do.end17:                                         ; preds = %if.then
  %irq = getelementptr inbounds nuw i8, ptr %call11, i64 168
  %4 = load ptr, ptr %irq, align 8
  %5 = load ptr, ptr %4, align 8
  tail call void @qemu_set_irq(ptr noundef %5, i32 noundef 0) #6
  br label %if.end

if.end:                                           ; preds = %do.end17, %if.then
  %shl22 = shl nuw nsw i64 2, %3
  %and23 = and i64 %shl22, %val.addr.0
  %tobool24.not = icmp eq i64 %and23, 0
  br i1 %tobool24.not, label %if.end31, label %do.end27

do.end27:                                         ; preds = %if.end
  %irq28 = getelementptr inbounds nuw i8, ptr %call11, i64 168
  %6 = load ptr, ptr %irq28, align 8
  %arrayidx29 = getelementptr i8, ptr %6, i64 8
  %7 = load ptr, ptr %arrayidx29, align 8
  tail call void @qemu_set_irq(ptr noundef %7, i32 noundef 0) #6
  br label %if.end31

if.end31:                                         ; preds = %if.end, %do.end27, %for.body
  %shl34 = shl nuw nsw i64 4096, %indvars.iv
  %and35 = and i64 %shl34, %val.addr.0
  %tobool36.not = icmp eq i64 %and35, 0
  br i1 %tobool36.not, label %for.inc, label %do.end39

do.end39:                                         ; preds = %if.end31
  %8 = load i16, ptr %status, align 8
  %9 = trunc nuw i64 %shl34 to i16
  %10 = xor i16 %9, -1
  %conv45 = and i16 %8, %10
  store i16 %conv45, ptr %status, align 8
  br label %for.inc

for.inc:                                          ; preds = %if.end31, %do.end39
  %indvars.iv.next = add nuw nsw i64 %indvars.iv, 1
  %exitcond.not = icmp eq i64 %indvars.iv.next, 4
  br i1 %exitcond.not, label %sw.epilog, label %for.body, !llvm.loop !8

sw.epilog:                                        ; preds = %for.inc, %entry, %sw.bb1
  ret void
}